Certificate:
    Data:
        Version: 3 (0x2)
        Serial Number:
            3b:2f:c7:8e:5f:80:46:a2:b7:19:e6:f1:a5:e3:49:41:69:0a:78:12
        Signature Algorithm: sha512WithRSAEncryption
        Issuer: C=CU, ST=La Habana, L=Plaza, O=ETECSA, OU=Centro de Datos, CN=idc.enet.cu, emailAddress=hosting@enet.cu
        Validity
            Not Before: Nov  6 16:28:05 2019 GMT
            Not After : Jan 23 16:28:05 2031 GMT
        Subject: C=CU, ST=La Habana, L=Plaza, O=ETECSA, OU=Centro de Datos, CN=idc.enet.cu, emailAddress=hosting@enet.cu
        Subject Public Key Info:
            Public Key Algorithm: rsaEncryption
                Public-Key: (4096 bit)
                Modulus:
                    00:bc:94:bc:6e:7b:10:2a:a8:04:fa:e8:fb:28:89:
                    bc:c4:7f:70:c9:57:7e:6d:b7:b0:0b:f1:3d:47:00:
                    18:63:0c:0c:57:04:76:d7:a7:6b:57:a8:0a:98:51:
                    bd:b9:28:83:c4:1d:09:3f:98:f3:3a:1c:7c:b4:d7:
                    6e:7c:16:3b:30:aa:44:a3:0a:49:03:a7:91:24:3b:
                    b9:6c:9d:db:f3:5c:5f:f6:2a:f7:32:b9:43:b7:13:
                    2f:4e:85:53:de:5d:92:e2:91:06:07:84:89:46:d4:
                    f7:22:2b:c7:2a:d8:7a:90:2e:95:84:ae:4f:3f:42:
                    fe:d3:37:5c:57:bb:01:71:b9:4b:3e:c8:a0:c2:09:
                    4c:8d:45:53:25:c7:f6:7d:fb:9f:1b:cd:c7:1a:a6:
                    7b:9c:f5:5d:30:77:19:89:9e:42:ec:94:62:f1:17:
                    83:b1:e6:a7:30:df:83:58:ab:ee:70:d7:48:5a:d9:
                    20:18:08:d5:98:2d:b1:ee:05:9e:31:2d:4a:57:78:
                    e9:51:43:f4:13:c2:8b:ff:7d:ca:42:85:41:d5:c1:
                    e4:46:e7:08:0c:19:65:d6:dc:51:02:2d:b1:da:24:
                    ff:eb:68:db:58:73:dd:13:cd:10:98:19:66:1d:64:
                    ef:fe:c5:bf:15:13:6c:e8:7d:e2:9a:e0:09:62:21:
                    de:95:65:24:3f:ec:a4:b1:6f:81:24:72:c6:43:4a:
                    eb:d4:6d:37:63:02:50:bd:66:e2:55:8f:25:3c:85:
                    20:eb:75:d5:26:4a:06:72:bf:c5:5f:f3:75:e7:4b:
                    8c:82:89:4d:00:5b:1c:36:95:c9:86:f4:bd:0c:5a:
                    de:ad:2a:60:3a:07:4d:81:e1:ac:2e:3a:b5:f5:cc:
                    ff:14:ff:a9:50:37:dd:9f:04:20:a8:38:5d:6c:f3:
                    8b:7f:ee:ce:96:6e:4c:19:29:a1:a4:e0:5b:ff:9d:
                    4e:89:a4:1a:88:73:c2:f5:37:9c:38:98:10:7e:b3:
                    94:2c:c2:c5:01:09:eb:90:b2:31:9c:0f:68:55:41:
                    35:92:f7:14:c2:b0:70:7f:35:5b:f9:3b:b8:5c:de:
                    be:fa:c7:dc:8d:34:ad:50:ec:fc:86:9d:d1:b8:2b:
                    14:ca:7e:a8:15:3c:88:4d:c3:ec:17:70:cf:f7:b6:
                    44:a6:2a:7e:9a:27:72:36:ee:74:48:01:28:88:42:
                    e4:94:a5:4e:8a:e2:51:e1:60:1e:d6:62:4a:b8:34:
                    cb:56:4d:a5:64:7e:93:8a:ae:0d:71:b4:a8:ab:a7:
                    ad:b0:5b:4d:d9:7b:8f:ea:fa:18:3c:96:75:b5:69:
                    d6:e0:37:6c:11:7c:8b:91:86:00:f9:89:1c:d3:37:
                    71:2f:db
                Exponent: 65537 (0x10001)
        X509v3 extensions:
            X509v3 Subject Key Identifier: 
                D6:62:91:1C:4D:05:1F:F7:B9:F4:E3:B7:70:FE:8D:AF:8F:C1:93:9C
            X509v3 Authority Key Identifier: 
                D6:62:91:1C:4D:05:1F:F7:B9:F4:E3:B7:70:FE:8D:AF:8F:C1:93:9C
            X509v3 Basic Constraints: critical
                CA:TRUE
    Signature Algorithm: sha512WithRSAEncryption
    Signature Value:
        02:b1:9d:82:d6:0c:78:18:0f:59:b9:40:1f:ce:3d:da:9a:6d:
        9d:73:62:e5:56:75:30:8c:35:15:f3:c4:e6:c4:97:fa:66:e3:
        79:e6:71:3a:5e:99:89:04:78:97:4d:d4:19:58:45:a7:26:7c:
        ff:ee:cd:46:e0:c1:bc:72:87:0d:25:0a:c3:81:6e:34:22:c9:
        82:6f:68:50:6b:5e:ec:80:45:f2:30:cc:1d:e2:97:d5:90:51:
        63:d4:47:6d:7e:ab:64:86:38:5b:7c:4b:4e:52:e3:5f:3d:bd:
        75:a7:b8:0b:b7:ad:a9:e4:13:e7:23:b4:2c:25:66:2d:e7:d5:
        f7:98:54:6c:e8:c6:0c:fe:f7:02:08:c8:a4:c9:03:2d:b8:83:
        0c:e3:9e:7f:e3:ea:7a:73:1f:80:63:97:6b:6c:74:47:a4:ba:
        c1:92:8b:1b:81:d7:bf:84:67:c9:69:c9:47:66:3e:99:1c:87:
        8e:f5:36:50:9c:72:e0:ce:f7:51:93:7e:83:26:6b:6f:47:5f:
        43:85:40:63:0e:0c:8a:4a:aa:eb:9a:ae:8a:0e:0d:28:44:d7:
        54:6d:b2:0b:7e:db:b6:89:2c:03:34:dd:18:3b:2c:c7:c7:e8:
        ed:14:e3:44:94:c7:76:37:c0:f7:e7:d8:bd:73:65:e0:52:ff:
        c7:d9:08:85:ba:98:78:45:8b:85:26:c6:f6:fe:45:f9:12:6f:
        8e:72:aa:55:17:7a:02:0c:34:a9:7b:d7:51:60:92:cf:99:78:
        e4:2a:67:3b:75:f4:ae:e1:f0:c4:61:62:7f:81:ed:db:df:b8:
        26:d2:f5:b8:f2:8d:4d:5b:dd:de:a4:43:23:5e:64:1c:b9:23:
        3b:b5:c2:42:0e:87:d6:63:2a:de:9b:de:16:25:ae:ad:7e:6d:
        9b:e8:28:bd:d6:b2:80:f2:74:ee:3d:ba:39:33:62:8f:60:a9:
        b9:d8:27:37:49:e9:8c:5b:50:40:51:d6:44:bc:3a:8a:74:26:
        cb:94:e2:ad:83:bd:94:01:67:5c:af:2a:87:15:2e:54:d5:ae:
        06:49:77:18:6b:2c:ff:a8:18:99:13:e2:49:0f:02:23:d0:bc:
        cf:40:38:d6:35:7a:84:a3:a9:88:3f:68:8d:c7:f4:48:8a:ed:
        5d:fb:7a:80:63:60:34:70:78:a4:8b:d9:dc:fe:d7:e9:56:e1:
        19:28:00:15:d9:bd:62:69:ea:d7:bd:ff:a3:98:11:1b:6b:31:
        b3:ff:09:df:1e:64:40:ca:3c:b5:d6:97:56:f4:28:6c:b3:8c:
        22:4f:13:6f:33:5d:43:9a:86:c4:f6:d2:bf:e9:5a:c2:b6:ce:
        6f:a9:a8:9b:06:cb:02:ea
-----BEGIN CERTIFICATE-----
MIIGBzCCA++gAwIBAgIUOy/Hjl+ARqK3GebxpeNJQWkKeBIwDQYJKoZIhvcNAQEN
BQAwgZIxCzAJBgNVBAYTAkNVMRIwEAYDVQQIDAlMYSBIYWJhbmExDjAMBgNVBAcM
BVBsYXphMQ8wDQYDVQQKDAZFVEVDU0ExGDAWBgNVBAsMD0NlbnRybyBkZSBEYXRv
czEUMBIGA1UEAwwLaWRjLmVuZXQuY3UxHjAcBgkqhkiG9w0BCQEWD2hvc3RpbmdA
ZW5ldC5jdTAeFw0xOTExMDYxNjI4MDVaFw0zMTAxMjMxNjI4MDVaMIGSMQswCQYD
VQQGEwJDVTESMBAGA1UECAwJTGEgSGFiYW5hMQ4wDAYDVQQHDAVQbGF6YTEPMA0G
A1UECgwGRVRFQ1NBMRgwFgYDVQQLDA9DZW50cm8gZGUgRGF0b3MxFDASBgNVBAMM
C2lkYy5lbmV0LmN1MR4wHAYJKoZIhvcNAQkBFg9ob3N0aW5nQGVuZXQuY3UwggIi
MA0GCSqGSIb3DQEBAQUAA4ICDwAwggIKAoICAQC8lLxuexAqqAT66PsoibzEf3DJ
V35tt7AL8T1HABhjDAxXBHbXp2tXqAqYUb25KIPEHQk/mPM6HHy01258FjswqkSj
CkkDp5EkO7lsndvzXF/2KvcyuUO3Ey9OhVPeXZLikQYHhIlG1PciK8cq2HqQLpWE
rk8/Qv7TN1xXuwFxuUs+yKDCCUyNRVMlx/Z9+58bzccapnuc9V0wdxmJnkLslGLx
F4Ox5qcw34NYq+5w10ha2SAYCNWYLbHuBZ4xLUpXeOlRQ/QTwov/fcpChUHVweRG
5wgMGWXW3FECLbHaJP/raNtYc90TzRCYGWYdZO/+xb8VE2zofeKa4AliId6VZSQ/
7KSxb4EkcsZDSuvUbTdjAlC9ZuJVjyU8hSDrddUmSgZyv8Vf83XnS4yCiU0AWxw2
lcmG9L0MWt6tKmA6B02B4awuOrX1zP8U/6lQN92fBCCoOF1s84t/7s6WbkwZKaGk
4Fv/nU6JpBqIc8L1N5w4mBB+s5QswsUBCeuQsjGcD2hVQTWS9xTCsHB/NVv5O7hc
3r76x9yNNK1Q7PyGndG4KxTKfqgVPIhNw+wXcM/3tkSmKn6aJ3I27nRIASiIQuSU
pU6K4lHhYB7WYkq4NMtWTaVkfpOKrg1xtKirp62wW03Ze4/q+hg8lnW1adbgN2wR
fIuRhgD5iRzTN3Ev2wIDAQABo1MwUTAdBgNVHQ4EFgQU1mKRHE0FH/e59OO3cP6N
r4/Bk5wwHwYDVR0jBBgwFoAU1mKRHE0FH/e59OO3cP6Nr4/Bk5wwDwYDVR0TAQH/
BAUwAwEB/zANBgkqhkiG9w0BAQ0FAAOCAgEAArGdgtYMeBgPWblAH8492pptnXNi
5VZ1MIw1FfPE5sSX+mbjeeZxOl6ZiQR4l03UGVhFpyZ8/+7NRuDBvHKHDSUKw4Fu
NCLJgm9oUGte7IBF8jDMHeKX1ZBRY9RHbX6rZIY4W3xLTlLjXz29dae4C7etqeQT
5yO0LCVmLefV95hUbOjGDP73AgjIpMkDLbiDDOOef+PqenMfgGOXa2x0R6S6wZKL
G4HXv4RnyWnJR2Y+mRyHjvU2UJxy4M73UZN+gyZrb0dfQ4VAYw4Mikqq65quig4N
KETXVG2yC37btoksAzTdGDssx8fo7RTjRJTHdjfA9+fYvXNl4FL/x9kIhbqYeEWL
hSbG9v5F+RJvjnKqVRd6Agw0qXvXUWCSz5l45CpnO3X0ruHwxGFif4Ht29+4JtL1
uPKNTVvd3qRDI15kHLkjO7XCQg6H1mMq3pveFiWurX5tm+govdaygPJ07j26OTNi
j2CpudgnN0npjFtQQFHWRLw6inQmy5TirYO9lAFnXK8qhxUuVNWuBkl3GGss/6gY
mRPiSQ8CI9C8z0A41jV6hKOpiD9ojcf0SIrtXft6gGNgNHB4pIvZ3P7X6VbhGSgA
Fdm9Ymnq173/o5gRG2sxs/8J3x5kQMo8tdaXVvQobLOMIk8TbzNdQ5qGxPbSv+la
wrbOb6momwbLAuo=
-----END CERTIFICATE-----
