Certificate:
    Data:
        Version: 3 (0x2)
        Serial Number:
            05:ec:cb:69:22:7e:a2:aa:19:96:c2:9f:dd:80:47:ba:97:ea
        Signature Algorithm: sha256WithRSAEncryption
        Issuer: C=US, O=Let's Encrypt, CN=R13
        Validity
            Not Before: Dec 30 18:49:21 2025 GMT
            Not After : Mar 30 18:49:20 2026 GMT
        Subject: CN=juventudrebelde.cu
        Subject Public Key Info:
            Public Key Algorithm: rsaEncryption
                Public-Key: (4096 bit)
                Modulus:
                    00:a0:7e:b9:55:b5:d7:57:3c:4b:b2:1e:02:a4:b3:
                    14:0e:6b:b9:61:0f:3a:72:d5:6e:ac:b1:8d:30:45:
                    07:72:19:c9:5b:ce:cd:f2:3e:9f:5a:3d:67:45:a7:
                    e8:28:c3:4e:1c:df:b6:f3:81:93:54:c8:a9:f4:b4:
                    b1:55:b2:ae:ed:20:98:cb:dc:a7:e4:a8:bd:39:ea:
                    71:cb:62:e0:4e:7f:15:c6:cb:7a:a5:04:11:8b:24:
                    86:15:06:e1:fc:f3:75:3e:fa:01:ac:b4:86:f7:a6:
                    5b:ae:90:7b:61:69:34:b5:a9:a2:ec:14:58:14:ce:
                    6a:52:a0:d3:42:3c:3b:8b:99:25:cf:ad:2e:d0:30:
                    c2:71:cd:cc:5e:72:d8:9a:f8:f0:7e:98:fe:62:3d:
                    27:78:fd:11:c6:ce:1d:23:6a:f2:96:8e:66:1e:39:
                    66:88:24:32:18:56:62:f2:80:af:e6:d4:f2:e6:3c:
                    13:7c:f2:6a:16:43:a5:51:c3:38:29:7c:8c:3d:18:
                    42:b8:c4:ed:b6:97:57:dc:84:eb:b6:99:64:41:de:
                    64:df:b2:61:4e:d6:4c:1d:45:28:4c:05:e8:06:c5:
                    46:92:44:ab:94:c7:8d:59:f9:c8:f4:81:a7:b5:2e:
                    d6:4c:dc:5f:5e:1f:52:f8:0d:06:46:73:94:3b:8c:
                    ef:c2:47:09:4b:a8:66:a5:1e:ef:1f:f8:cc:79:33:
                    bd:e6:73:2f:13:35:44:22:c5:c0:48:08:6a:f8:e3:
                    8e:0a:b2:d3:8e:b7:b7:1b:20:9d:05:1f:d1:02:e1:
                    04:38:bf:13:a6:f4:fa:87:f7:40:83:c4:7d:c6:5a:
                    6c:ff:79:54:27:bb:56:50:8d:ca:f7:cb:b5:17:9d:
                    31:91:87:33:f2:9e:2c:82:c7:ed:aa:21:93:08:40:
                    78:42:bc:03:e0:01:56:ec:a1:df:de:82:0e:79:fa:
                    41:d4:de:16:7e:de:b2:f3:38:c0:7f:db:56:c4:2e:
                    55:10:82:e6:a3:6f:fd:7f:da:56:0b:32:1a:62:aa:
                    07:29:64:da:4e:3f:85:3f:71:8e:85:81:bf:dc:78:
                    25:fc:a1:35:94:6d:74:1b:61:12:0f:47:32:37:d5:
                    2a:5e:fb:ab:46:31:a3:76:02:a2:2d:22:c5:39:56:
                    21:24:45:40:83:ec:d6:72:cc:ed:b7:cc:b2:a3:df:
                    02:33:f4:c7:cd:13:3b:c6:f7:db:82:67:6c:57:36:
                    0e:f8:15:7f:d8:e0:03:ad:98:75:e2:f4:ca:d3:c1:
                    0d:d6:17:63:8e:7f:41:2d:45:00:04:3a:e0:c9:e2:
                    72:6e:cc:1b:f9:40:3e:f1:45:33:69:dc:06:eb:81:
                    b3:a5:07
                Exponent: 65537 (0x10001)
        X509v3 extensions:
            X509v3 Key Usage: critical
                Digital Signature, Key Encipherment
            X509v3 Extended Key Usage: 
                TLS Web Server Authentication, TLS Web Client Authentication
            X509v3 Basic Constraints: critical
                CA:FALSE
            X509v3 Subject Key Identifier: 
                E5:82:4E:EF:34:ED:7A:92:17:C7:48:80:DC:F6:D1:BB:AA:A1:ED:9D
            X509v3 Authority Key Identifier: 
                E7:AB:9F:0F:2C:33:A0:53:D3:5E:4F:78:C8:B2:84:0E:3B:D6:92:33
            Authority Information Access: 
                CA Issuers - URI:http://r13.i.lencr.org/
            X509v3 Subject Alternative Name: 
                DNS:juventudrebelde.cu, DNS:www.juventudrebelde.cu
            X509v3 Certificate Policies: 
                Policy: 2.23.140.1.2.1
            X509v3 CRL Distribution Points: 
                Full Name:
                  URI:http://r13.c.lencr.org/107.crl

            CT Precertificate SCTs: 
                Signed Certificate Timestamp:
                    Version   : v1 (0x0)
                    Log ID    : CB:38:F7:15:89:7C:84:A1:44:5F:5B:C1:DD:FB:C9:6E:
                                F2:9A:59:CD:47:0A:69:05:85:B0:CB:14:C3:14:58:E7
                    Timestamp : Dec 30 19:47:51.248 2025 GMT
                    Extensions: none
                    Signature : ecdsa-with-SHA256
                                30:45:02:20:3A:A6:57:E3:BA:BE:BB:E1:02:5D:16:00:
                                7D:40:93:74:7A:15:19:0B:C5:72:18:0B:6A:71:76:5D:
                                64:19:4A:A7:02:21:00:BB:9F:18:2A:80:AD:88:ED:64:
                                D7:E4:FE:E4:71:E3:5F:FF:43:EC:FC:86:7B:AF:28:52:
                                2F:90:BD:42:EB:8A:E1
                Signed Certificate Timestamp:
                    Version   : v1 (0x0)
                    Log ID    : 16:83:2D:AB:F0:A9:25:0F:0F:F0:3A:A5:45:FF:C8:BF:
                                C8:23:D0:87:4B:F6:04:29:27:F8:E7:1F:33:13:F5:FA
                    Timestamp : Dec 30 19:47:51.275 2025 GMT
                    Extensions: none
                    Signature : ecdsa-with-SHA256
                                30:45:02:21:00:EC:FA:81:8F:4D:00:D0:AD:25:1A:D8:
                                C5:03:81:21:88:37:F1:F4:0E:BC:7B:63:9A:98:D0:51:
                                57:7A:BC:03:5A:02:20:78:04:FC:B3:A4:B6:8F:DC:07:
                                DF:A4:40:23:8D:F1:1E:20:32:88:B0:C3:AD:70:1D:25:
                                5B:B3:81:F4:29:E0:92
    Signature Algorithm: sha256WithRSAEncryption
    Signature Value:
        6b:61:f4:4d:10:62:b7:2d:e5:46:93:9a:c2:45:6c:4f:d2:91:
        35:55:ab:61:35:2b:36:4e:ab:e0:b9:39:f3:64:f4:83:26:0d:
        6c:4a:92:9e:ed:bb:ff:9d:4c:0d:2a:69:ee:6d:97:69:50:cc:
        b6:91:58:a5:d6:27:80:e2:27:d6:f8:f9:4e:21:38:3e:83:dc:
        18:d9:b8:f5:5d:3d:72:8e:bd:df:f9:d8:bc:65:a4:ff:cc:b8:
        52:82:c4:3c:05:3e:47:4b:f9:60:2b:e1:09:b5:ca:45:27:c3:
        14:64:6f:e3:7c:39:ed:8c:5b:2f:4e:d8:9e:f2:95:49:cb:65:
        f5:12:fb:b5:4d:83:39:28:17:4c:77:00:61:bb:a8:f3:dd:45:
        8a:75:bd:e1:64:7a:77:a9:ee:fa:b8:ff:5c:ad:4c:89:e2:91:
        07:6a:b2:6d:5c:d0:57:fb:a8:db:10:05:0f:cc:d6:c5:c1:40:
        29:fe:d1:9f:3a:e1:2e:f4:b6:2e:ed:37:8f:1d:32:3d:d1:78:
        a7:7a:85:28:95:2a:db:83:33:cc:11:5c:29:5f:a5:70:95:ca:
        be:5d:94:7c:70:d6:83:f2:cf:c3:35:39:1b:8d:30:47:f4:07:
        67:5e:12:31:68:08:b3:f6:5c:c3:8a:d8:a3:96:de:9b:1e:e1:
        94:20:09:81
-----BEGIN CERTIFICATE-----
MIIGGTCCBQGgAwIBAgISBezLaSJ+oqoZlsKf3YBHupfqMA0GCSqGSIb3DQEBCwUA
MDMxCzAJBgNVBAYTAlVTMRYwFAYDVQQKEw1MZXQncyBFbmNyeXB0MQwwCgYDVQQD
EwNSMTMwHhcNMjUxMjMwMTg0OTIxWhcNMjYwMzMwMTg0OTIwWjAdMRswGQYDVQQD
ExJqdXZlbnR1ZHJlYmVsZGUuY3UwggIiMA0GCSqGSIb3DQEBAQUAA4ICDwAwggIK
AoICAQCgfrlVtddXPEuyHgKksxQOa7lhDzpy1W6ssY0wRQdyGclbzs3yPp9aPWdF
p+gow04c37bzgZNUyKn0tLFVsq7tIJjL3KfkqL056nHLYuBOfxXGy3qlBBGLJIYV
BuH883U++gGstIb3pluukHthaTS1qaLsFFgUzmpSoNNCPDuLmSXPrS7QMMJxzcxe
ctia+PB+mP5iPSd4/RHGzh0javKWjmYeOWaIJDIYVmLygK/m1PLmPBN88moWQ6VR
wzgpfIw9GEK4xO22l1fchOu2mWRB3mTfsmFO1kwdRShMBegGxUaSRKuUx41Z+cj0
gae1LtZM3F9eH1L4DQZGc5Q7jO/CRwlLqGalHu8f+Mx5M73mcy8TNUQixcBICGr4
444KstOOt7cbIJ0FH9EC4QQ4vxOm9PqH90CDxH3GWmz/eVQnu1ZQjcr3y7UXnTGR
hzPyniyCx+2qIZMIQHhCvAPgAVbsod/egg55+kHU3hZ+3rLzOMB/21bELlUQguaj
b/1/2lYLMhpiqgcpZNpOP4U/cY6Fgb/ceCX8oTWUbXQbYRIPRzI31Spe+6tGMaN2
AqItIsU5ViEkRUCD7NZyzO23zLKj3wIz9MfNEzvG99uCZ2xXNg74FX/Y4AOtmHXi
9MrTwQ3WF2OOf0EtRQAEOuDJ4nJuzBv5QD7xRTNp3AbrgbOlBwIDAQABo4ICOzCC
AjcwDgYDVR0PAQH/BAQDAgWgMB0GA1UdJQQWMBQGCCsGAQUFBwMBBggrBgEFBQcD
AjAMBgNVHRMBAf8EAjAAMB0GA1UdDgQWBBTlgk7vNO16khfHSIDc9tG7qqHtnTAf
BgNVHSMEGDAWgBTnq58PLDOgU9NeT3jIsoQOO9aSMzAzBggrBgEFBQcBAQQnMCUw
IwYIKwYBBQUHMAKGF2h0dHA6Ly9yMTMuaS5sZW5jci5vcmcvMDUGA1UdEQQuMCyC
Emp1dmVudHVkcmViZWxkZS5jdYIWd3d3Lmp1dmVudHVkcmViZWxkZS5jdTATBgNV
HSAEDDAKMAgGBmeBDAECATAvBgNVHR8EKDAmMCSgIqAghh5odHRwOi8vcjEzLmMu
bGVuY3Iub3JnLzEwNy5jcmwwggEEBgorBgEEAdZ5AgQCBIH1BIHyAPAAdgDLOPcV
iXyEoURfW8Hd+8lu8ppZzUcKaQWFsMsUwxRY5wAAAZtwzXNQAAAEAwBHMEUCIDqm
V+O6vrvhAl0WAH1Ak3R6FRkLxXIYC2pxdl1kGUqnAiEAu58YKoCtiO1k1+T+5HHj
X/9D7PyGe68oUi+QvULriuEAdgAWgy2r8KklDw/wOqVF/8i/yCPQh0v2BCkn+Ocf
MxP1+gAAAZtwzXNrAAAEAwBHMEUCIQDs+oGPTQDQrSUa2MUDgSGIN/H0Drx7Y5qY
0FFXerwDWgIgeAT8s6S2j9wH36RAI43xHiAyiLDDrXAdJVuzgfQp4JIwDQYJKoZI
hvcNAQELBQADggEBAGth9E0QYrct5UaTmsJFbE/SkTVVq2E1KzZOq+C5OfNk9IMm
DWxKkp7tu/+dTA0qae5tl2lQzLaRWKXWJ4DiJ9b4+U4hOD6D3BjZuPVdPXKOvd/5
2LxlpP/MuFKCxDwFPkdL+WAr4Qm1ykUnwxRkb+N8Oe2MWy9O2J7ylUnLZfUS+7VN
gzkoF0x3AGG7qPPdRYp1veFkenep7vq4/1ytTInikQdqsm1c0Ff7qNsQBQ/M1sXB
QCn+0Z864S70ti7tN48dMj3ReKd6hSiVKtuDM8wRXClfpXCVyr5dlHxw1oPyz8M1
ORuNMEf0B2deEjFoCLP2XMOK2KOW3pse4ZQgCYE=
-----END CERTIFICATE-----
