Certificate:
    Data:
        Version: 3 (0x2)
        Serial Number:
            05:d0:f4:dc:52:a3:4e:b1:a3:16:f9:9c:45:27:34:6e:2d:b3
        Signature Algorithm: sha256WithRSAEncryption
        Issuer: C=US, O=Let's Encrypt, CN=R13
        Validity
            Not Before: Dec 24 20:03:45 2025 GMT
            Not After : Mar 24 20:03:44 2026 GMT
        Subject: CN=www.minfar.gob.cu
        Subject Public Key Info:
            Public Key Algorithm: rsaEncryption
                Public-Key: (4096 bit)
                Modulus:
                    00:8f:09:0b:7d:78:95:e5:95:1e:8c:ee:4c:74:e3:
                    a1:c9:5e:3d:20:ce:7a:5a:4c:31:ab:88:a6:14:c3:
                    b2:25:26:79:61:2c:8e:50:07:0b:b3:ac:b1:c6:18:
                    84:79:8d:33:7a:7e:f4:0b:8d:ec:5e:ea:44:29:a6:
                    df:c3:2c:04:a3:e8:8d:f6:bb:f7:3d:4a:b5:52:11:
                    03:f0:e7:d7:7c:f9:0e:5d:a6:c6:fe:87:bb:8a:20:
                    99:6a:7f:ed:ee:fb:6a:54:8d:46:11:b5:35:7d:c2:
                    c0:8a:bb:4e:75:a2:f2:33:66:00:ea:9e:e2:2c:5f:
                    d2:08:d2:7f:78:33:0c:ff:a3:41:b4:0a:34:48:3c:
                    1c:14:53:b8:80:ca:c5:f5:5f:11:25:bd:2f:ad:06:
                    dd:c2:13:bf:05:2e:d3:3a:c9:af:01:38:a4:7d:ac:
                    44:22:a2:e6:6d:08:4c:6e:2b:ca:7c:6f:6d:70:6a:
                    24:2a:ca:b8:ca:b0:de:e2:11:94:f1:e5:68:1a:0d:
                    39:f6:f7:5b:25:18:da:e4:59:57:76:da:0a:e2:e7:
                    9e:1e:2a:6c:e8:29:8b:ee:84:3c:e8:cf:34:5e:3f:
                    90:1e:b9:5d:bc:37:1a:12:bb:b9:de:9c:5c:f2:8f:
                    20:42:03:20:90:3c:cc:d6:2f:65:f4:ab:f0:86:7c:
                    a5:18:9c:de:57:a8:b7:f0:88:bb:f9:8a:62:05:7d:
                    44:87:bc:a2:97:76:78:3c:ec:2a:c4:31:8f:eb:4c:
                    a1:7e:4a:1f:39:01:f3:bf:22:31:d1:d3:3f:dd:9a:
                    25:de:e2:05:ef:54:71:91:18:9a:f0:c9:37:45:0f:
                    a3:bc:1a:6c:63:d0:1f:85:51:ef:1b:7f:c2:23:7a:
                    7b:ea:be:ee:24:61:38:1a:d1:83:58:ec:15:08:b6:
                    83:28:da:9a:0a:c4:9a:8f:9f:91:71:7f:08:3b:75:
                    2e:85:b4:89:56:a2:17:ee:5e:46:9c:b4:0e:d0:05:
                    47:83:79:78:8d:2b:72:8a:98:db:f0:fe:7c:ca:e2:
                    1f:d2:c8:75:69:e6:da:65:d1:59:c5:a0:5e:89:4f:
                    8d:97:b0:bf:87:62:58:34:b2:4f:3f:27:82:7f:37:
                    df:d8:04:63:bc:8f:29:62:f5:a3:4b:3a:86:a1:a6:
                    3a:3f:57:9d:9d:52:ae:29:e5:4b:c5:a0:58:4b:ca:
                    e5:cc:ae:89:5a:6e:b5:aa:d0:b6:60:20:cf:40:7e:
                    af:3e:15:f6:92:82:8c:2e:0b:23:fc:1b:a0:c6:a5:
                    fa:8e:5f:59:95:e0:ef:71:11:95:56:d6:d1:bf:d5:
                    6b:6c:1a:55:79:62:27:c5:03:e0:47:66:89:88:36:
                    7c:f8:d5
                Exponent: 65537 (0x10001)
        X509v3 extensions:
            X509v3 Key Usage: critical
                Digital Signature, Key Encipherment
            X509v3 Extended Key Usage: 
                TLS Web Server Authentication, TLS Web Client Authentication
            X509v3 Basic Constraints: critical
                CA:FALSE
            X509v3 Subject Key Identifier: 
                E1:AC:E4:26:43:A9:D3:A1:BD:2F:15:34:C3:C7:9C:81:5B:49:0D:8E
            X509v3 Authority Key Identifier: 
                E7:AB:9F:0F:2C:33:A0:53:D3:5E:4F:78:C8:B2:84:0E:3B:D6:92:33
            Authority Information Access: 
                CA Issuers - URI:http://r13.i.lencr.org/
            X509v3 Subject Alternative Name: 
                DNS:www.minfar.gob.cu
            X509v3 Certificate Policies: 
                Policy: 2.23.140.1.2.1
            X509v3 CRL Distribution Points: 
                Full Name:
                  URI:http://r13.c.lencr.org/52.crl

            CT Precertificate SCTs: 
                Signed Certificate Timestamp:
                    Version   : v1 (0x0)
                    Log ID    : 64:11:C4:6C:A4:12:EC:A7:89:1C:A2:02:2E:00:BC:AB:
                                4F:28:07:D4:1E:35:27:AB:EA:FE:D5:03:C9:7D:CD:F0
                    Timestamp : Dec 24 21:02:15.392 2025 GMT
                    Extensions: none
                    Signature : ecdsa-with-SHA256
                                30:44:02:20:1D:F7:EC:47:7D:92:95:BC:37:4D:33:FC:
                                DF:81:77:B6:6F:8C:55:A3:39:2F:DF:30:D9:DF:FF:A1:
                                B1:62:FA:3E:02:20:0F:4C:A7:C0:96:B7:11:A2:59:DA:
                                8A:35:14:46:09:21:39:16:46:F1:35:A5:FB:FD:4C:99:
                                55:B7:DF:7D:21:A9
                Signed Certificate Timestamp:
                    Version   : v1 (0x0)
                    Log ID    : D1:6E:A9:A5:68:07:7E:66:35:A0:3F:37:A5:DD:BC:03:
                                A5:3C:41:12:14:D4:88:18:F5:E9:31:B3:23:CB:95:04
                    Timestamp : Dec 24 21:02:15.626 2025 GMT
                    Extensions: none
                    Signature : ecdsa-with-SHA256
                                30:45:02:20:7A:23:F6:91:3D:6D:8A:E6:39:B5:DE:52:
                                C5:6C:9E:1C:3D:47:C0:6C:E0:8E:30:57:47:38:23:96:
                                59:D9:1C:64:02:21:00:87:53:77:6E:E5:03:12:33:8E:
                                64:3C:2F:F4:85:BB:4E:DA:B7:98:03:C1:FF:EC:A3:72:
                                9D:DC:13:1A:D5:82:27
    Signature Algorithm: sha256WithRSAEncryption
    Signature Value:
        8b:aa:88:57:e4:5f:54:6d:5a:23:b5:68:4c:39:56:52:9c:fa:
        bb:f9:a0:83:96:bc:a2:fc:c5:0d:11:b2:2e:51:74:e5:76:5f:
        be:77:c8:67:5a:33:36:e6:41:6e:bd:62:ef:ea:7f:c1:70:3e:
        23:93:3f:d6:f7:c0:42:bf:4c:32:60:90:fd:a9:ad:1e:d2:b5:
        9b:26:ac:d9:28:39:79:26:f9:fa:cd:e1:14:4c:ec:80:40:4f:
        d3:b8:4a:e5:ef:9e:c1:db:9d:c7:af:30:be:75:05:e6:bb:5f:
        b9:83:3a:3b:82:31:c5:dd:3e:e2:e0:3b:de:5a:09:79:ec:50:
        1b:81:c7:2e:0b:23:a6:25:ee:e4:89:4a:de:d3:79:29:64:0a:
        d1:4d:f8:58:7f:f7:1a:ed:e3:84:f0:db:6a:36:9d:bd:64:7b:
        10:11:4d:70:0d:d9:ee:b4:f5:c1:6b:9f:f7:6c:b8:b2:89:6c:
        5c:70:da:32:73:84:bc:17:74:0c:27:1f:3f:7a:59:a6:77:5e:
        82:c4:f1:4a:61:cb:b0:c2:29:c4:5a:71:9e:a1:02:ac:e6:27:
        22:ba:74:e7:e9:90:08:aa:01:f5:f7:b5:de:78:a3:7b:5d:c6:
        68:a7:53:92:01:e0:20:c9:15:b7:d3:4f:b5:c2:5a:bf:81:4f:
        00:7d:d8:b8
-----BEGIN CERTIFICATE-----
MIIF/TCCBOWgAwIBAgISBdD03FKjTrGjFvmcRSc0bi2zMA0GCSqGSIb3DQEBCwUA
MDMxCzAJBgNVBAYTAlVTMRYwFAYDVQQKEw1MZXQncyBFbmNyeXB0MQwwCgYDVQQD
EwNSMTMwHhcNMjUxMjI0MjAwMzQ1WhcNMjYwMzI0MjAwMzQ0WjAcMRowGAYDVQQD
ExF3d3cubWluZmFyLmdvYi5jdTCCAiIwDQYJKoZIhvcNAQEBBQADggIPADCCAgoC
ggIBAI8JC314leWVHozuTHTjoclePSDOelpMMauIphTDsiUmeWEsjlAHC7OsscYY
hHmNM3p+9AuN7F7qRCmm38MsBKPojfa79z1KtVIRA/Dn13z5Dl2mxv6Hu4ogmWp/
7e77alSNRhG1NX3CwIq7TnWi8jNmAOqe4ixf0gjSf3gzDP+jQbQKNEg8HBRTuIDK
xfVfESW9L60G3cITvwUu0zrJrwE4pH2sRCKi5m0ITG4rynxvbXBqJCrKuMqw3uIR
lPHlaBoNOfb3WyUY2uRZV3baCuLnnh4qbOgpi+6EPOjPNF4/kB65Xbw3GhK7ud6c
XPKPIEIDIJA8zNYvZfSr8IZ8pRic3leot/CIu/mKYgV9RIe8opd2eDzsKsQxj+tM
oX5KHzkB878iMdHTP92aJd7iBe9UcZEYmvDJN0UPo7wabGPQH4VR7xt/wiN6e+q+
7iRhOBrRg1jsFQi2gyjamgrEmo+fkXF/CDt1LoW0iVaiF+5eRpy0DtAFR4N5eI0r
coqY2/D+fMriH9LIdWnm2mXRWcWgXolPjZewv4diWDSyTz8ngn8339gEY7yPKWL1
o0s6hqGmOj9XnZ1SrinlS8WgWEvK5cyuiVputarQtmAgz0B+rz4V9pKCjC4LI/wb
oMal+o5fWZXg73ERlVbW0b/Va2waVXliJ8UD4EdmiYg2fPjVAgMBAAGjggIgMIIC
HDAOBgNVHQ8BAf8EBAMCBaAwHQYDVR0lBBYwFAYIKwYBBQUHAwEGCCsGAQUFBwMC
MAwGA1UdEwEB/wQCMAAwHQYDVR0OBBYEFOGs5CZDqdOhvS8VNMPHnIFbSQ2OMB8G
A1UdIwQYMBaAFOernw8sM6BT015PeMiyhA471pIzMDMGCCsGAQUFBwEBBCcwJTAj
BggrBgEFBQcwAoYXaHR0cDovL3IxMy5pLmxlbmNyLm9yZy8wHAYDVR0RBBUwE4IR
d3d3Lm1pbmZhci5nb2IuY3UwEwYDVR0gBAwwCjAIBgZngQwBAgEwLgYDVR0fBCcw
JTAjoCGgH4YdaHR0cDovL3IxMy5jLmxlbmNyLm9yZy81Mi5jcmwwggEDBgorBgEE
AdZ5AgQCBIH0BIHxAO8AdQBkEcRspBLsp4kcogIuALyrTygH1B41J6vq/tUDyX3N
8AAAAZtSK2lgAAAEAwBGMEQCIB337Ed9kpW8N00z/N+Bd7ZvjFWjOS/fMNnf/6Gx
Yvo+AiAPTKfAlrcRolnaijUURgkhORZG8TWl+/1MmVW3330hqQB2ANFuqaVoB35m
NaA/N6XdvAOlPEESFNSIGPXpMbMjy5UEAAABm1IrakoAAAQDAEcwRQIgeiP2kT1t
iuY5td5SxWyeHD1HwGzgjjBXRzgjllnZHGQCIQCHU3du5QMSM45kPC/0hbtO2reY
A8H/7KNyndwTGtWCJzANBgkqhkiG9w0BAQsFAAOCAQEAi6qIV+RfVG1aI7VoTDlW
Upz6u/mgg5a8ovzFDRGyLlF05XZfvnfIZ1ozNuZBbr1i7+p/wXA+I5M/1vfAQr9M
MmCQ/amtHtK1myas2Sg5eSb5+s3hFEzsgEBP07hK5e+ewdudx68wvnUF5rtfuYM6
O4Ixxd0+4uA73loJeexQG4HHLgsjpiXu5IlK3tN5KWQK0U34WH/3Gu3jhPDbajad
vWR7EBFNcA3Z7rT1wWuf92y4solsXHDaMnOEvBd0DCcfP3pZpndegsTxSmHLsMIp
xFpxnqECrOYnIrp05+mQCKoB9fe13nije13GaKdTkgHgIMkVt9NPtcJav4FPAH3Y
uA==
-----END CERTIFICATE-----
