Certificate:
    Data:
        Version: 3 (0x2)
        Serial Number:
            06:73:ce:4c:8d:4d:3d:65:c1:9d:4c:42:73:9a:af:58:8f:ab
        Signature Algorithm: sha256WithRSAEncryption
        Issuer: C=US, O=Let's Encrypt, CN=R13
        Validity
            Not Before: Dec 24 20:22:20 2025 GMT
            Not After : Mar 24 20:22:19 2026 GMT
        Subject: CN=*.presidencia.gob.cu
        Subject Public Key Info:
            Public Key Algorithm: rsaEncryption
                Public-Key: (4096 bit)
                Modulus:
                    00:e2:14:76:cd:ae:0a:c4:2d:4d:e6:c0:9b:6f:58:
                    1b:12:54:7d:c8:36:f3:82:e9:3b:7a:5f:69:81:ba:
                    f7:5f:18:5b:4a:70:63:04:c6:4d:a8:c1:fe:6e:f0:
                    ed:72:db:c7:9e:15:e0:3b:1d:f8:00:7b:21:d4:a5:
                    a9:88:5c:33:83:f1:d5:8b:ab:ef:ec:09:f7:cf:bb:
                    01:ed:d4:49:ca:3c:67:27:5b:cd:a9:b9:60:c2:76:
                    92:97:0c:fc:82:e2:c1:16:bf:fd:71:1b:0c:af:b1:
                    7e:d3:16:a7:b5:e8:8f:12:b5:1f:11:06:c5:11:df:
                    f7:ab:87:47:db:93:9d:3d:f9:4c:48:bc:75:b5:fa:
                    de:fd:00:30:09:5d:2f:7a:42:75:ed:42:18:d1:ef:
                    89:b6:38:45:69:21:1d:8a:68:8a:40:77:e8:f4:df:
                    33:88:49:41:b9:72:6e:27:06:e7:27:5a:7d:88:77:
                    4c:3f:b6:aa:83:95:d6:b8:fe:2e:18:59:10:e5:bc:
                    c5:a6:c9:4a:67:65:6b:6f:a8:73:41:b1:f5:36:62:
                    51:c2:da:b8:a7:0d:f4:8d:0b:dd:17:41:e2:8d:ea:
                    d0:7c:df:89:41:90:f3:5b:0e:64:53:04:1a:c8:72:
                    52:2a:45:06:d9:b7:4e:ce:36:60:47:a3:c7:8d:91:
                    4f:62:3b:fc:b8:67:4b:cc:06:d2:5c:59:6f:d8:0a:
                    29:ce:72:33:48:02:18:63:0c:9b:3b:7b:4b:09:8d:
                    c2:96:f0:5d:de:74:6c:a9:14:51:ec:e8:e5:29:c8:
                    88:21:0e:1a:99:10:e1:ac:ee:69:44:ed:06:83:0b:
                    6e:ea:1a:56:b6:8b:c7:26:b4:92:55:fc:cb:52:5e:
                    3f:30:7c:9b:3f:3e:21:79:b3:1d:68:bc:1e:0e:56:
                    ba:1e:84:06:ae:93:ce:b8:7d:9d:4a:c1:19:f9:d1:
                    9c:56:cc:43:2f:e6:5a:f7:a5:e4:8b:a4:73:9c:88:
                    87:a0:91:27:79:fc:84:c0:c8:0e:e1:ab:88:1f:3f:
                    5c:39:b4:72:29:0c:45:27:49:02:f2:5a:2c:05:59:
                    da:73:d4:12:bc:80:1b:29:80:eb:74:93:8b:05:1d:
                    b7:51:bc:2c:88:f8:dd:16:9d:28:40:3f:11:26:ba:
                    8d:1c:15:88:04:7e:d2:5d:70:80:09:5e:5e:3b:1c:
                    af:fc:d0:3e:96:8d:19:81:84:be:a1:82:03:ad:70:
                    21:fd:e3:d6:88:41:a8:a6:0d:47:af:14:bf:d1:fd:
                    58:75:23:eb:e7:ae:5f:65:7c:07:79:76:64:26:13:
                    e8:2f:d8:ca:ae:0a:a9:b3:36:c5:0b:ae:b0:54:08:
                    6a:49:05
                Exponent: 65537 (0x10001)
        X509v3 extensions:
            X509v3 Key Usage: critical
                Digital Signature, Key Encipherment
            X509v3 Extended Key Usage: 
                TLS Web Server Authentication, TLS Web Client Authentication
            X509v3 Basic Constraints: critical
                CA:FALSE
            X509v3 Subject Key Identifier: 
                53:BE:F8:78:38:AC:75:6D:47:41:19:5A:7F:A6:98:5C:14:D7:88:4E
            X509v3 Authority Key Identifier: 
                E7:AB:9F:0F:2C:33:A0:53:D3:5E:4F:78:C8:B2:84:0E:3B:D6:92:33
            Authority Information Access: 
                CA Issuers - URI:http://r13.i.lencr.org/
            X509v3 Subject Alternative Name: 
                DNS:*.presidencia.gob.cu
            X509v3 Certificate Policies: 
                Policy: 2.23.140.1.2.1
            X509v3 CRL Distribution Points: 
                Full Name:
                  URI:http://r13.c.lencr.org/44.crl

            CT Precertificate SCTs: 
                Signed Certificate Timestamp:
                    Version   : v1 (0x0)
                    Log ID    : 64:11:C4:6C:A4:12:EC:A7:89:1C:A2:02:2E:00:BC:AB:
                                4F:28:07:D4:1E:35:27:AB:EA:FE:D5:03:C9:7D:CD:F0
                    Timestamp : Dec 24 21:20:51.133 2025 GMT
                    Extensions: none
                    Signature : ecdsa-with-SHA256
                                30:45:02:21:00:AE:B7:21:03:2C:02:34:E7:C8:A5:36:
                                D5:40:C4:8F:A5:3F:AF:4F:83:66:FF:CD:FF:98:8D:C2:
                                7D:36:9A:23:FA:02:20:48:DB:A6:E6:2A:02:DD:E4:C4:
                                11:40:76:C6:5B:03:40:DA:7C:4E:29:EF:65:34:90:E3:
                                C3:C2:64:8C:1D:D6:D4
                Signed Certificate Timestamp:
                    Version   : v1 (0x0)
                    Log ID    : A5:C9:78:92:5D:57:46:17:82:87:0D:D8:89:66:0B:5C:
                                55:64:8B:7D:00:40:F2:EC:07:68:51:D1:88:69:19:F7
                    Timestamp : Dec 24 21:20:51.830 2025 GMT
                    Extensions: 00:00:05:00:2C:B3:67:43
                    Signature : ecdsa-with-SHA256
                                30:46:02:21:00:8E:7E:00:01:56:BD:64:95:B1:02:38:
                                AA:C5:50:62:6E:BB:56:D2:3F:FE:AE:67:97:1A:DD:1E:
                                A5:53:23:E6:48:02:21:00:C8:57:6E:E5:D0:17:32:ED:
                                67:D1:9C:91:DD:13:4A:E2:F1:01:E3:38:7D:D2:6E:91:
                                F5:50:12:F9:99:11:13:AB
    Signature Algorithm: sha256WithRSAEncryption
    Signature Value:
        2d:07:0d:72:fc:52:33:96:73:4d:dd:6a:05:d2:da:c2:51:a1:
        f6:c8:18:cf:98:7a:5b:e1:d0:27:86:17:ba:b0:60:da:fe:56:
        c2:b1:0b:4e:97:5e:b1:f3:ca:0b:b2:84:c0:98:72:ad:f9:76:
        61:99:e5:f8:31:a0:0a:33:7a:7e:cc:e7:b0:32:04:8c:36:ac:
        49:36:4f:0a:bc:5c:3c:af:be:15:95:a3:59:28:df:94:97:11:
        31:2e:8e:7c:07:22:15:98:11:80:87:2d:3d:3d:2e:ce:e3:6e:
        ab:9b:79:b7:ef:3f:0c:3c:49:8c:f8:b4:d3:fe:d3:f2:46:bd:
        b0:b5:71:0b:c8:ad:2a:9e:50:f7:d7:7a:d1:49:4e:bd:1b:d5:
        cb:d2:de:af:b4:48:cc:41:24:68:8f:3b:78:e2:b6:13:f0:30:
        cf:bd:df:e5:61:1c:9e:fb:11:77:f5:08:16:61:fe:ea:e7:9d:
        62:0e:d3:4f:32:34:02:e0:6d:cf:8c:e3:71:4f:3b:a8:7c:6a:
        d1:40:ad:3e:e5:43:3b:f9:e1:32:15:37:24:ba:c8:b7:d7:a7:
        91:1e:1d:bf:f0:57:74:46:b6:3f:d9:35:dc:00:1f:71:c6:fc:
        c1:14:33:11:ad:b4:26:c6:27:33:09:44:9b:12:4b:81:cb:5a:
        af:43:d4:31
-----BEGIN CERTIFICATE-----
MIIGDTCCBPWgAwIBAgISBnPOTI1NPWXBnUxCc5qvWI+rMA0GCSqGSIb3DQEBCwUA
MDMxCzAJBgNVBAYTAlVTMRYwFAYDVQQKEw1MZXQncyBFbmNyeXB0MQwwCgYDVQQD
EwNSMTMwHhcNMjUxMjI0MjAyMjIwWhcNMjYwMzI0MjAyMjE5WjAfMR0wGwYDVQQD
DBQqLnByZXNpZGVuY2lhLmdvYi5jdTCCAiIwDQYJKoZIhvcNAQEBBQADggIPADCC
AgoCggIBAOIUds2uCsQtTebAm29YGxJUfcg284LpO3pfaYG6918YW0pwYwTGTajB
/m7w7XLbx54V4Dsd+AB7IdSlqYhcM4Px1Yur7+wJ98+7Ae3USco8Zydbzam5YMJ2
kpcM/ILiwRa//XEbDK+xftMWp7XojxK1HxEGxRHf96uHR9uTnT35TEi8dbX63v0A
MAldL3pCde1CGNHvibY4RWkhHYpoikB36PTfM4hJQblybicG5ydafYh3TD+2qoOV
1rj+LhhZEOW8xabJSmdla2+oc0Gx9TZiUcLauKcN9I0L3RdB4o3q0HzfiUGQ81sO
ZFMEGshyUipFBtm3Ts42YEejx42RT2I7/LhnS8wG0lxZb9gKKc5yM0gCGGMMmzt7
SwmNwpbwXd50bKkUUezo5SnIiCEOGpkQ4azuaUTtBoMLbuoaVraLxya0klX8y1Je
PzB8mz8+IXmzHWi8Hg5Wuh6EBq6Tzrh9nUrBGfnRnFbMQy/mWvel5Iukc5yIh6CR
J3n8hMDIDuGriB8/XDm0cikMRSdJAvJaLAVZ2nPUEryAGymA63STiwUdt1G8LIj4
3RadKEA/ESa6jRwViAR+0l1wgAleXjscr/zQPpaNGYGEvqGCA61wIf3j1ohBqKYN
R68Uv9H9WHUj6+euX2V8B3l2ZCYT6C/Yyq4KqbM2xQuusFQIakkFAgMBAAGjggIt
MIICKTAOBgNVHQ8BAf8EBAMCBaAwHQYDVR0lBBYwFAYIKwYBBQUHAwEGCCsGAQUF
BwMCMAwGA1UdEwEB/wQCMAAwHQYDVR0OBBYEFFO++Hg4rHVtR0EZWn+mmFwU14hO
MB8GA1UdIwQYMBaAFOernw8sM6BT015PeMiyhA471pIzMDMGCCsGAQUFBwEBBCcw
JTAjBggrBgEFBQcwAoYXaHR0cDovL3IxMy5pLmxlbmNyLm9yZy8wHwYDVR0RBBgw
FoIUKi5wcmVzaWRlbmNpYS5nb2IuY3UwEwYDVR0gBAwwCjAIBgZngQwBAgEwLgYD
VR0fBCcwJTAjoCGgH4YdaHR0cDovL3IxMy5jLmxlbmNyLm9yZy80NC5jcmwwggEN
BgorBgEEAdZ5AgQCBIH+BIH7APkAdgBkEcRspBLsp4kcogIuALyrTygH1B41J6vq
/tUDyX3N8AAAAZtSPG+9AAAEAwBHMEUCIQCutyEDLAI058ilNtVAxI+lP69Pg2b/
zf+YjcJ9Npoj+gIgSNum5ioC3eTEEUB2xlsDQNp8TinvZTSQ48PCZIwd1tQAfwCl
yXiSXVdGF4KHDdiJZgtcVWSLfQBA8uwHaFHRiGkZ9wAAAZtSPHJ2AAgAAAUALLNn
QwQDAEgwRgIhAI5+AAFWvWSVsQI4qsVQYm67VtI//q5nlxrdHqVTI+ZIAiEAyFdu
5dAXMu1n0ZyR3RNK4vEB4zh90m6R9VAS+ZkRE6swDQYJKoZIhvcNAQELBQADggEB
AC0HDXL8UjOWc03dagXS2sJRofbIGM+Yelvh0CeGF7qwYNr+VsKxC06XXrHzyguy
hMCYcq35dmGZ5fgxoAozen7M57AyBIw2rEk2Twq8XDyvvhWVo1ko35SXETEujnwH
IhWYEYCHLT09Ls7jbqubebfvPww8SYz4tNP+0/JGvbC1cQvIrSqeUPfXetFJTr0b
1cvS3q+0SMxBJGiPO3jithPwMM+93+VhHJ77EXf1CBZh/urnnWIO008yNALgbc+M
43FPO6h8atFArT7lQzv54TIVNyS6yLfXp5EeHb/wV3RGtj/ZNdwAH3HG/MEUMxGt
tCbGJzMJRJsSS4HLWq9D1DE=
-----END CERTIFICATE-----
