Certificate:
    Data:
        Version: 3 (0x2)
        Serial Number:
            06:3e:10:7e:f9:67:8f:19:1f:f1:b6:2d:31:be:d9:e8:83:3c
        Signature Algorithm: sha256WithRSAEncryption
        Issuer: C=US, O=Let's Encrypt, CN=R13
        Validity
            Not Before: Nov 26 10:08:45 2025 GMT
            Not After : Feb 24 10:08:44 2026 GMT
        Subject: CN=f.cert.rsa.icrt.cu
        Subject Public Key Info:
            Public Key Algorithm: rsaEncryption
                Public-Key: (4096 bit)
                Modulus:
                    00:bd:7f:60:44:d2:cb:e7:eb:e4:07:ba:ef:bb:fa:
                    ca:8a:db:41:f1:8f:03:d1:4b:b9:4a:18:98:fd:ab:
                    fd:ea:42:8e:27:e0:8c:6d:f5:05:ac:ed:b0:ba:a3:
                    bf:e0:74:a1:ea:8e:5c:bc:bb:03:42:78:56:98:7c:
                    33:ca:f1:0a:23:b1:2b:59:39:37:00:8e:bc:bb:2b:
                    e7:65:9d:24:cd:07:79:10:fe:05:e8:59:77:8b:bc:
                    bf:6f:42:14:ca:77:b6:ff:66:4d:b6:df:d7:04:09:
                    29:25:e0:61:d2:57:7d:ad:c5:7c:0a:60:74:4c:6c:
                    05:f0:be:2c:95:5e:52:e5:92:69:8c:06:08:fb:67:
                    86:5e:e4:f9:7a:93:83:40:0d:18:05:b5:d0:98:f6:
                    70:d0:f2:28:58:69:bb:31:56:f0:dc:59:71:83:76:
                    6c:15:bb:74:11:f8:a3:f4:42:f0:27:88:55:6b:3b:
                    cb:07:0d:5f:ae:ab:e1:0e:a4:6e:a6:00:cf:2f:e0:
                    9f:58:fe:0f:a8:92:ab:84:b0:c8:9e:a8:41:d1:6e:
                    bf:4b:42:9e:cf:00:b7:15:9b:f5:14:98:5b:30:89:
                    a7:c5:4a:75:61:42:26:95:2b:0d:8a:a0:a6:a1:1b:
                    4e:38:9b:f8:17:14:e6:95:65:fc:e4:7a:91:c7:ac:
                    d9:4a:4a:c5:2e:98:41:ff:bb:04:f4:17:65:80:8a:
                    1a:55:0d:8e:37:cb:ca:97:bd:62:fa:49:94:62:8d:
                    7f:84:76:fe:f1:37:05:7c:41:a8:89:5b:67:a9:0a:
                    cb:4b:c7:06:b8:8d:fd:0a:64:55:c5:16:02:d1:81:
                    84:8a:fe:79:0f:fb:89:69:5a:31:b5:15:58:b1:37:
                    b4:ef:54:bd:d3:aa:4e:ed:c9:7b:96:02:56:27:56:
                    76:0d:d7:5a:fa:70:6c:ee:4e:6c:4e:e2:85:3b:48:
                    65:60:b3:ca:d6:0b:8c:a9:15:13:e5:4c:25:bb:d5:
                    a1:55:01:1d:6d:2d:54:d7:69:9e:3f:70:31:4f:57:
                    d3:fa:89:b1:50:22:12:05:3b:46:e6:ec:54:9e:4f:
                    4f:89:3f:04:0f:aa:02:13:b0:a5:f7:c5:37:57:7f:
                    a6:84:0e:39:ad:13:eb:31:48:9d:c7:50:71:68:4d:
                    50:70:cf:33:e8:22:c8:a1:8b:24:3f:39:f7:c2:14:
                    ec:9c:05:5a:5b:60:0a:af:2f:95:9e:c3:9b:d6:fb:
                    86:88:80:c0:55:5e:e2:e8:2d:e2:82:40:82:b1:f7:
                    11:2a:75:54:d0:63:c2:92:aa:a2:89:90:90:c7:aa:
                    06:58:47:ec:06:c8:52:c1:ee:b1:45:32:ec:61:33:
                    fe:80:21
                Exponent: 65537 (0x10001)
        X509v3 extensions:
            X509v3 Key Usage: critical
                Digital Signature, Key Encipherment
            X509v3 Extended Key Usage: 
                TLS Web Server Authentication, TLS Web Client Authentication
            X509v3 Basic Constraints: critical
                CA:FALSE
            X509v3 Subject Key Identifier: 
                F3:24:7A:C1:23:ED:1A:54:2B:A0:56:2E:87:94:28:29:42:01:52:F1
            X509v3 Authority Key Identifier: 
                E7:AB:9F:0F:2C:33:A0:53:D3:5E:4F:78:C8:B2:84:0E:3B:D6:92:33
            Authority Information Access: 
                CA Issuers - URI:http://r13.i.lencr.org/
            X509v3 Subject Alternative Name: 
                DNS:*.abuenahora.icrt.cu, DNS:*.aguadaradio.icrt.cu, DNS:*.ariguanaboradioweb.icrt.cu, DNS:*.artemisaradioweb.icrt.cu, DNS:*.astoc.icrt.cu, DNS:*.cadenagramonte.cu, DNS:*.cadenagramonte.icrt.cu, DNS:*.cadenahabana.icrt.cu, DNS:*.canalcaribe.icrt.cu, DNS:*.canalclave.icrt.cu, DNS:*.canaleducativo.icrt.cu, DNS:*.canaleducativo2.icrt.cu, DNS:*.canalhabana.icrt.cu, DNS:*.centrovision.icrt.cu, DNS:*.cert.icrt.cu, DNS:*.cmbfradio.cu, DNS:*.cmbfradio.icrt.cu, DNS:*.cmhw.cu, DNS:*.cmhw.icrt.cu, DNS:*.cmkc.cu, DNS:*.cmkc.icrt.cu, DNS:*.cnctv.icrt.cu, DNS:*.cnctvgranma.cu, DNS:*.cnctvgranma.icrt.cu, DNS:*.colmenatv.icrt.cu, DNS:*.concursoadolfoguzman.icrt.cu, DNS:*.cubanradio.cu, DNS:*.cubanradio.icrt.cu, DNS:*.cvi.icrt.cu, DNS:*.envivo.icrt.cu, DNS:*.hayco.icrt.cu, DNS:*.islavision.icrt.cu, DNS:*.jarucoradioweb.icrt.cu, DNS:*.labandagigante.icrt.cu, DNS:*.lavozdelniquel.icrt.cu, DNS:*.ligajuvenil.icrt.cu, DNS:*.loslucas.icrt.cu, DNS:*.motordearranque.icrt.cu, DNS:*.neurona.icrt.cu, DNS:*.notinet.icrt.cu, DNS:*.perlavision.cu, DNS:*.perlavision.icrt.cu, DNS:*.radio26.cu, DNS:*.radio26.icrt.cu, DNS:*.radio8sf.cu, DNS:*.radio8sf.icrt.cu, DNS:*.radioangulo.cu, DNS:*.radioangulo.icrt.cu, DNS:*.radioartemisa.icrt.cu, DNS:*.radiobanes.icrt.cu, DNS:*.radiobaracoa.icrt.cu, DNS:*.radiobaragua.cu, DNS:*.radiobaragua.icrt.cu, DNS:*.radiocaibarien.cu, DNS:*.radiocaibarien.icrt.cu, DNS:*.radiogritodebaire.cu, DNS:*.radiogritodebaire.icrt.cu, DNS:*.radiorebelde.cu, DNS:*.radiorebelde.icrt.cu, DNS:*.telecristal.cu, DNS:*.telecristal.icrt.cu, DNS:*.tvsantiago.icrt.cu, DNS:f.cert.rsa.icrt.cu, DNS:radiorebelde.cu
            X509v3 Certificate Policies: 
                Policy: 2.23.140.1.2.1
            X509v3 CRL Distribution Points: 
                Full Name:
                  URI:http://r13.c.lencr.org/61.crl

            CT Precertificate SCTs: 
                Signed Certificate Timestamp:
                    Version   : v1 (0x0)
                    Log ID    : CB:38:F7:15:89:7C:84:A1:44:5F:5B:C1:DD:FB:C9:6E:
                                F2:9A:59:CD:47:0A:69:05:85:B0:CB:14:C3:14:58:E7
                    Timestamp : Nov 26 11:07:15.668 2025 GMT
                    Extensions: none
                    Signature : ecdsa-with-SHA256
                                30:45:02:21:00:C8:0D:03:4E:18:B4:89:C4:85:EB:5D:
                                46:95:A6:EC:4E:7C:EC:30:57:F8:4F:C9:38:EE:B9:BE:
                                09:71:F4:7D:A9:02:20:52:F3:C4:07:CD:37:82:D8:31:
                                E6:99:67:E6:5E:44:C4:27:32:CD:2B:0B:E6:5A:75:14:
                                49:39:CE:A0:08:23:9B
                Signed Certificate Timestamp:
                    Version   : v1 (0x0)
                    Log ID    : 0E:57:94:BC:F3:AE:A9:3E:33:1B:2C:99:07:B3:F7:90:
                                DF:9B:C2:3D:71:32:25:DD:21:A9:25:AC:61:C5:4E:21
                    Timestamp : Nov 26 11:07:15.630 2025 GMT
                    Extensions: none
                    Signature : ecdsa-with-SHA256
                                30:45:02:21:00:80:AB:0F:17:82:8A:D7:03:51:A5:F7:
                                A6:0D:B8:40:43:9A:10:6F:A8:C6:AB:4F:D0:57:97:74:
                                E2:E5:6F:13:46:02:20:6A:35:F3:8E:9F:06:B0:52:9E:
                                02:F0:34:A5:1C:EE:1D:85:7B:0D:CB:FA:8F:62:23:14:
                                4A:58:F1:35:52:83:74
    Signature Algorithm: sha256WithRSAEncryption
    Signature Value:
        40:df:8d:2a:83:dc:96:8a:b0:9a:d0:a2:9c:2b:c9:fe:97:f6:
        f0:14:27:76:3d:15:81:3b:e1:48:d1:13:ba:c8:e4:9c:41:e0:
        ab:a8:a0:fb:db:19:fd:d1:4e:7c:d5:52:f3:ef:fd:42:04:c0:
        34:b6:c6:9b:54:85:77:25:4d:ac:6d:3e:4a:f2:ba:cf:22:8f:
        c9:39:a7:d6:06:a7:04:cd:da:23:a3:9e:a2:8c:c6:9e:77:d1:
        80:36:c6:13:0a:fc:91:73:d4:ab:92:3d:8b:fc:fa:d8:38:56:
        7f:86:b7:09:32:a4:62:8f:fe:88:32:18:c2:a1:24:ff:13:d2:
        1d:51:dd:66:cc:fa:bb:1d:32:34:25:db:b6:23:b5:04:ba:80:
        20:46:ad:76:df:d1:8e:66:1e:b0:a7:19:d7:d4:54:7d:26:04:
        77:2d:52:1a:7a:e3:67:67:94:a6:11:a7:9f:f7:c4:6d:58:53:
        d9:0a:14:d1:d6:c2:c0:db:9b:c4:c1:95:d0:a8:24:6b:43:e7:
        40:50:13:8f:06:8f:df:33:f5:63:8a:65:38:14:b1:fa:9e:41:
        16:43:e2:23:4b:38:75:4a:27:12:9d:9a:a0:be:2c:8e:29:42:
        75:1e:f6:29:f8:c6:88:b8:a5:ac:68:4e:50:8c:2d:06:93:85:
        30:f9:c5:48
-----BEGIN CERTIFICATE-----
MIILQDCCCiigAwIBAgISBj4Qfvlnjxkf8bYtMb7Z6IM8MA0GCSqGSIb3DQEBCwUA
MDMxCzAJBgNVBAYTAlVTMRYwFAYDVQQKEw1MZXQncyBFbmNyeXB0MQwwCgYDVQQD
EwNSMTMwHhcNMjUxMTI2MTAwODQ1WhcNMjYwMjI0MTAwODQ0WjAdMRswGQYDVQQD
ExJmLmNlcnQucnNhLmljcnQuY3UwggIiMA0GCSqGSIb3DQEBAQUAA4ICDwAwggIK
AoICAQC9f2BE0svn6+QHuu+7+sqK20HxjwPRS7lKGJj9q/3qQo4n4Ixt9QWs7bC6
o7/gdKHqjly8uwNCeFaYfDPK8QojsStZOTcAjry7K+dlnSTNB3kQ/gXoWXeLvL9v
QhTKd7b/Zk2239cECSkl4GHSV32txXwKYHRMbAXwviyVXlLlkmmMBgj7Z4Ze5Pl6
k4NADRgFtdCY9nDQ8ihYabsxVvDcWXGDdmwVu3QR+KP0QvAniFVrO8sHDV+uq+EO
pG6mAM8v4J9Y/g+okquEsMieqEHRbr9LQp7PALcVm/UUmFswiafFSnVhQiaVKw2K
oKahG044m/gXFOaVZfzkepHHrNlKSsUumEH/uwT0F2WAihpVDY43y8qXvWL6SZRi
jX+Edv7xNwV8QaiJW2epCstLxwa4jf0KZFXFFgLRgYSK/nkP+4lpWjG1FVixN7Tv
VL3Tqk7tyXuWAlYnVnYN11r6cGzuTmxO4oU7SGVgs8rWC4ypFRPlTCW71aFVAR1t
LVTXaZ4/cDFPV9P6ibFQIhIFO0bm7FSeT0+JPwQPqgITsKX3xTdXf6aEDjmtE+sx
SJ3HUHFoTVBwzzPoIsihiyQ/OffCFOycBVpbYAqvL5Wew5vW+4aIgMBVXuLoLeKC
QIKx9xEqdVTQY8KSqqKJkJDHqgZYR+wGyFLB7rFFMuxhM/6AIQIDAQABo4IHYjCC
B14wDgYDVR0PAQH/BAQDAgWgMB0GA1UdJQQWMBQGCCsGAQUFBwMBBggrBgEFBQcD
AjAMBgNVHRMBAf8EAjAAMB0GA1UdDgQWBBTzJHrBI+0aVCugVi6HlCgpQgFS8TAf
BgNVHSMEGDAWgBTnq58PLDOgU9NeT3jIsoQOO9aSMzAzBggrBgEFBQcBAQQnMCUw
IwYIKwYBBQUHMAKGF2h0dHA6Ly9yMTMuaS5sZW5jci5vcmcvMIIFWwYDVR0RBIIF
UjCCBU6CFCouYWJ1ZW5haG9yYS5pY3J0LmN1ghUqLmFndWFkYXJhZGlvLmljcnQu
Y3WCHCouYXJpZ3VhbmFib3JhZGlvd2ViLmljcnQuY3WCGiouYXJ0ZW1pc2FyYWRp
b3dlYi5pY3J0LmN1gg8qLmFzdG9jLmljcnQuY3WCEyouY2FkZW5hZ3JhbW9udGUu
Y3WCGCouY2FkZW5hZ3JhbW9udGUuaWNydC5jdYIWKi5jYWRlbmFoYWJhbmEuaWNy
dC5jdYIVKi5jYW5hbGNhcmliZS5pY3J0LmN1ghQqLmNhbmFsY2xhdmUuaWNydC5j
dYIYKi5jYW5hbGVkdWNhdGl2by5pY3J0LmN1ghkqLmNhbmFsZWR1Y2F0aXZvMi5p
Y3J0LmN1ghUqLmNhbmFsaGFiYW5hLmljcnQuY3WCFiouY2VudHJvdmlzaW9uLmlj
cnQuY3WCDiouY2VydC5pY3J0LmN1gg4qLmNtYmZyYWRpby5jdYITKi5jbWJmcmFk
aW8uaWNydC5jdYIJKi5jbWh3LmN1gg4qLmNtaHcuaWNydC5jdYIJKi5jbWtjLmN1
gg4qLmNta2MuaWNydC5jdYIPKi5jbmN0di5pY3J0LmN1ghAqLmNuY3R2Z3Jhbm1h
LmN1ghUqLmNuY3R2Z3Jhbm1hLmljcnQuY3WCEyouY29sbWVuYXR2LmljcnQuY3WC
HiouY29uY3Vyc29hZG9sZm9ndXptYW4uaWNydC5jdYIPKi5jdWJhbnJhZGlvLmN1
ghQqLmN1YmFucmFkaW8uaWNydC5jdYINKi5jdmkuaWNydC5jdYIQKi5lbnZpdm8u
aWNydC5jdYIPKi5oYXljby5pY3J0LmN1ghQqLmlzbGF2aXNpb24uaWNydC5jdYIY
Ki5qYXJ1Y29yYWRpb3dlYi5pY3J0LmN1ghgqLmxhYmFuZGFnaWdhbnRlLmljcnQu
Y3WCGCoubGF2b3pkZWxuaXF1ZWwuaWNydC5jdYIVKi5saWdhanV2ZW5pbC5pY3J0
LmN1ghIqLmxvc2x1Y2FzLmljcnQuY3WCGSoubW90b3JkZWFycmFucXVlLmljcnQu
Y3WCESoubmV1cm9uYS5pY3J0LmN1ghEqLm5vdGluZXQuaWNydC5jdYIQKi5wZXJs
YXZpc2lvbi5jdYIVKi5wZXJsYXZpc2lvbi5pY3J0LmN1ggwqLnJhZGlvMjYuY3WC
ESoucmFkaW8yNi5pY3J0LmN1gg0qLnJhZGlvOHNmLmN1ghIqLnJhZGlvOHNmLmlj
cnQuY3WCECoucmFkaW9hbmd1bG8uY3WCFSoucmFkaW9hbmd1bG8uaWNydC5jdYIX
Ki5yYWRpb2FydGVtaXNhLmljcnQuY3WCFCoucmFkaW9iYW5lcy5pY3J0LmN1ghYq
LnJhZGlvYmFyYWNvYS5pY3J0LmN1ghEqLnJhZGlvYmFyYWd1YS5jdYIWKi5yYWRp
b2JhcmFndWEuaWNydC5jdYITKi5yYWRpb2NhaWJhcmllbi5jdYIYKi5yYWRpb2Nh
aWJhcmllbi5pY3J0LmN1ghYqLnJhZGlvZ3JpdG9kZWJhaXJlLmN1ghsqLnJhZGlv
Z3JpdG9kZWJhaXJlLmljcnQuY3WCESoucmFkaW9yZWJlbGRlLmN1ghYqLnJhZGlv
cmViZWxkZS5pY3J0LmN1ghAqLnRlbGVjcmlzdGFsLmN1ghUqLnRlbGVjcmlzdGFs
LmljcnQuY3WCFCoudHZzYW50aWFnby5pY3J0LmN1ghJmLmNlcnQucnNhLmljcnQu
Y3WCD3JhZGlvcmViZWxkZS5jdTATBgNVHSAEDDAKMAgGBmeBDAECATAuBgNVHR8E
JzAlMCOgIaAfhh1odHRwOi8vcjEzLmMubGVuY3Iub3JnLzYxLmNybDCCAQQGCisG
AQQB1nkCBAIEgfUEgfIA8AB2AMs49xWJfIShRF9bwd37yW7ymlnNRwppBYWwyxTD
FFjnAAABmr/YnVQAAAQDAEcwRQIhAMgNA04YtInEhetdRpWm7E587DBX+E/JOO65
vglx9H2pAiBS88QHzTeC2DHmmWfmXkTEJzLNKwvmWnUUSTnOoAgjmwB2AA5XlLzz
rqk+MxssmQez95Dfm8I9cTIl3SGpJaxhxU4hAAABmr/YnS4AAAQDAEcwRQIhAICr
DxeCitcDUaX3pg24QEOaEG+oxqtP0FeXdOLlbxNGAiBqNfOOnwawUp4C8DSlHO4d
hXsNy/qPYiMUSljxNVKDdDANBgkqhkiG9w0BAQsFAAOCAQEAQN+NKoPcloqwmtCi
nCvJ/pf28BQndj0VgTvhSNETusjknEHgq6ig+9sZ/dFOfNVS8+/9QgTANLbGm1SF
dyVNrG0+SvK6zyKPyTmn1ganBM3aI6OeoozGnnfRgDbGEwr8kXPUq5I9i/z62DhW
f4a3CTKkYo/+iDIYwqEk/xPSHVHdZsz6ux0yNCXbtiO1BLqAIEatdt/RjmYesKcZ
19RUfSYEdy1SGnrjZ2eUphGnn/fEbVhT2QoU0dbCwNubxMGV0Kgka0PnQFATjwaP
3zP1Y4plOBSx+p5BFkPiI0s4dUonEp2aoL4sjilCdR72KfjGiLilrGhOUIwtBpOF
MPnFSA==
-----END CERTIFICATE-----
