Certificate:
    Data:
        Version: 3 (0x2)
        Serial Number:
            06:6e:42:cf:c0:a0:a0:2a:6d:a2:e4:10:7b:a7:bd:47:08:16
        Signature Algorithm: sha256WithRSAEncryption
        Issuer: C=US, O=Let's Encrypt, CN=R13
        Validity
            Not Before: Jan  2 12:43:32 2026 GMT
            Not After : Apr  2 12:43:31 2026 GMT
        Subject: CN=trabajadores.cu
        Subject Public Key Info:
            Public Key Algorithm: rsaEncryption
                Public-Key: (4096 bit)
                Modulus:
                    00:8a:ab:df:ec:31:2f:2d:f3:4c:fb:09:a6:53:07:
                    93:00:3c:6a:f8:6b:f4:cd:70:8b:1b:bd:1b:4e:c3:
                    e1:5c:c5:71:09:60:13:8b:4d:a1:2d:b1:93:dc:73:
                    54:24:f1:db:71:31:d9:59:d7:48:b6:c2:3f:8d:fd:
                    46:09:19:f0:87:a3:f9:9d:54:05:54:28:ab:85:d7:
                    5e:33:1b:e1:61:bf:23:67:a1:f2:90:d0:41:f5:3c:
                    46:62:1d:86:10:1a:cf:01:5e:4d:4a:e1:e2:c4:62:
                    ab:45:fa:67:d4:18:64:6f:dc:a7:64:45:45:f5:7b:
                    d3:b8:f5:32:a6:de:8d:3a:1f:78:6e:b8:1b:e7:64:
                    1a:3d:74:b7:bc:ad:b9:fc:76:ea:63:dd:94:25:84:
                    00:41:c6:55:dc:76:05:c1:54:c7:c1:8a:5f:6d:bd:
                    27:db:4c:e1:01:d8:52:b1:c3:a0:5d:7f:bd:de:1a:
                    95:ed:7b:f7:49:db:a8:0c:a4:d9:ec:e1:48:06:3a:
                    be:10:91:ad:1a:ec:49:b2:58:1a:db:c1:df:00:f0:
                    7a:64:55:46:5d:aa:9e:fb:fd:4f:b8:79:4c:f3:7c:
                    6a:cd:35:06:05:a6:b4:89:89:89:67:7d:e5:c9:9f:
                    68:ab:57:0c:16:e1:2d:14:57:a1:a0:27:b4:41:8f:
                    0e:9e:0c:87:b1:73:90:89:27:30:ef:2a:35:b6:5a:
                    9f:02:8b:e2:3a:3b:43:cb:8a:e7:cf:0a:b0:3a:c2:
                    0e:93:27:ae:41:92:8a:0b:e2:0b:bf:98:97:8d:88:
                    9c:b1:2d:03:b8:a3:75:54:23:23:27:4f:35:2a:9c:
                    6b:04:f2:e3:67:cd:01:92:8c:5f:69:15:15:a0:01:
                    81:d4:0f:86:8a:94:64:36:c7:19:7f:2e:03:04:b5:
                    0a:25:e2:c0:b4:a7:35:fe:1a:52:8c:68:a8:eb:0b:
                    8f:63:90:3b:99:f6:9e:03:6c:22:0d:8a:3f:38:6f:
                    aa:25:96:f7:0a:83:15:12:db:e4:23:d6:65:7b:26:
                    24:be:9a:4d:2a:8a:20:7b:17:de:c9:43:e3:e0:d4:
                    ef:29:76:a5:6a:34:c8:a4:fd:ad:fd:d2:43:49:69:
                    8a:2a:ee:f7:4b:82:fd:b2:73:6f:e0:22:a8:b2:4d:
                    e4:99:cd:d3:14:d4:ef:86:62:9e:55:45:14:db:d2:
                    72:70:4f:27:4b:6e:2d:d9:f2:75:ea:61:2b:d9:8a:
                    03:f4:05:03:eb:cf:a2:98:da:d7:db:d4:8b:11:7c:
                    ef:e3:19:1c:0a:55:3a:ed:f1:2c:ce:1a:f0:b3:3e:
                    d0:8a:a1:6c:fe:51:85:ab:de:b2:1f:4a:32:82:29:
                    e4:a2:2d
                Exponent: 65537 (0x10001)
        X509v3 extensions:
            X509v3 Key Usage: critical
                Digital Signature, Key Encipherment
            X509v3 Extended Key Usage: 
                TLS Web Server Authentication, TLS Web Client Authentication
            X509v3 Basic Constraints: critical
                CA:FALSE
            X509v3 Subject Key Identifier: 
                74:5E:1A:8C:96:E6:A7:12:E9:90:9B:E6:83:70:1A:AF:C2:4F:B9:3F
            X509v3 Authority Key Identifier: 
                E7:AB:9F:0F:2C:33:A0:53:D3:5E:4F:78:C8:B2:84:0E:3B:D6:92:33
            Authority Information Access: 
                CA Issuers - URI:http://r13.i.lencr.org/
            X509v3 Subject Alternative Name: 
                DNS:archivo.trabajadores.cu, DNS:trabajadores.cu, DNS:www.trabajadores.cu
            X509v3 Certificate Policies: 
                Policy: 2.23.140.1.2.1
            X509v3 CRL Distribution Points: 
                Full Name:
                  URI:http://r13.c.lencr.org/23.crl

            CT Precertificate SCTs: 
                Signed Certificate Timestamp:
                    Version   : v1 (0x0)
                    Log ID    : 96:97:64:BF:55:58:97:AD:F7:43:87:68:37:08:42:77:
                                E9:F0:3A:D5:F6:A4:F3:36:6E:46:A4:3F:0F:CA:A9:C6
                    Timestamp : Jan  2 13:42:03.068 2026 GMT
                    Extensions: none
                    Signature : ecdsa-with-SHA256
                                30:45:02:20:57:4F:07:D6:18:F1:5F:26:EC:4E:1C:A4:
                                D2:86:B4:B0:33:B1:28:3D:6A:AC:09:E0:CA:88:3F:97:
                                8E:2C:90:FE:02:21:00:EF:56:9F:6E:9F:D8:E0:E3:98:
                                E3:BA:F1:97:25:CA:75:B5:59:16:35:C2:78:ED:91:87:
                                AC:8C:DE:73:C5:F7:73
                Signed Certificate Timestamp:
                    Version   : v1 (0x0)
                    Log ID    : E3:23:8D:F2:8D:A2:88:E0:AA:E0:AC:F0:FA:90:C9:85:
                                F0:B6:BF:F5:D2:A5:27:B0:01:FC:1C:44:58:C4:B6:E8
                    Timestamp : Jan  2 13:42:03.523 2026 GMT
                    Extensions: 00:00:05:00:2E:0D:E8:85
                    Signature : ecdsa-with-SHA256
                                30:45:02:21:00:D3:82:98:0E:22:DE:B1:35:61:5A:A2:
                                3A:5E:AE:99:A5:30:4B:EC:9D:0D:52:EA:E6:48:72:B3:
                                3F:AA:C4:04:E8:02:20:29:C4:05:D1:1F:7A:8F:44:AE:
                                C6:CC:80:74:AD:0E:07:3F:EF:96:5D:3C:D1:6D:2C:01:
                                00:7C:8C:BE:AF:30:3F
    Signature Algorithm: sha256WithRSAEncryption
    Signature Value:
        6f:54:eb:d3:9b:ec:d3:e2:79:4a:56:b7:95:25:69:cc:0c:64:
        ac:7b:20:53:ec:e1:bf:2d:67:02:1d:25:65:aa:13:f4:d6:8c:
        8f:f1:fe:c4:0e:90:1b:7d:9e:dc:d0:e9:72:7d:e3:75:72:be:
        39:0a:4b:fa:6c:ea:06:f0:22:de:1c:c8:80:0f:00:f7:34:80:
        1a:78:f6:69:f3:b8:bd:2f:97:8c:3b:2e:ec:53:49:0b:70:e8:
        30:e6:e9:a0:f7:c1:8c:34:9b:78:18:d5:ff:53:65:55:06:71:
        af:6b:9f:ea:ab:a0:a3:03:ef:0b:15:e0:97:30:60:5c:f3:a3:
        d9:2b:fb:a6:7a:0c:9c:95:e7:41:86:0b:d0:01:84:65:c2:4f:
        91:c7:e5:76:bd:a9:b0:b2:cb:62:74:87:91:1d:7e:dc:a2:70:
        f6:9d:86:40:79:4d:b8:f7:00:40:af:80:e2:f9:26:69:78:71:
        91:56:d3:fd:97:70:fd:5e:af:90:65:bf:5b:75:d7:ea:d1:b0:
        56:3a:9d:13:3f:bd:6f:15:d9:50:91:0e:15:62:1f:23:14:7d:
        2d:c8:45:a6:f9:bc:19:fe:cd:52:fd:a3:76:e7:ca:7c:d8:f7:
        92:3f:5e:73:7c:4f:95:4e:55:e4:8f:47:b9:99:9e:98:c5:82:
        c2:6d:45:59
-----BEGIN CERTIFICATE-----
MIIGMDCCBRigAwIBAgISBm5Cz8CgoCptouQQe6e9RwgWMA0GCSqGSIb3DQEBCwUA
MDMxCzAJBgNVBAYTAlVTMRYwFAYDVQQKEw1MZXQncyBFbmNyeXB0MQwwCgYDVQQD
EwNSMTMwHhcNMjYwMTAyMTI0MzMyWhcNMjYwNDAyMTI0MzMxWjAaMRgwFgYDVQQD
Ew90cmFiYWphZG9yZXMuY3UwggIiMA0GCSqGSIb3DQEBAQUAA4ICDwAwggIKAoIC
AQCKq9/sMS8t80z7CaZTB5MAPGr4a/TNcIsbvRtOw+FcxXEJYBOLTaEtsZPcc1Qk
8dtxMdlZ10i2wj+N/UYJGfCHo/mdVAVUKKuF114zG+FhvyNnofKQ0EH1PEZiHYYQ
Gs8BXk1K4eLEYqtF+mfUGGRv3KdkRUX1e9O49TKm3o06H3huuBvnZBo9dLe8rbn8
dupj3ZQlhABBxlXcdgXBVMfBil9tvSfbTOEB2FKxw6Bdf73eGpXte/dJ26gMpNns
4UgGOr4Qka0a7EmyWBrbwd8A8HpkVUZdqp77/U+4eUzzfGrNNQYFprSJiYlnfeXJ
n2irVwwW4S0UV6GgJ7RBjw6eDIexc5CJJzDvKjW2Wp8Ci+I6O0PLiufPCrA6wg6T
J65BkooL4gu/mJeNiJyxLQO4o3VUIyMnTzUqnGsE8uNnzQGSjF9pFRWgAYHUD4aK
lGQ2xxl/LgMEtQol4sC0pzX+GlKMaKjrC49jkDuZ9p4DbCINij84b6ollvcKgxUS
2+Qj1mV7JiS+mk0qiiB7F97JQ+Pg1O8pdqVqNMik/a390kNJaYoq7vdLgv2yc2/g
IqiyTeSZzdMU1O+GYp5VRRTb0nJwTydLbi3Z8nXqYSvZigP0BQPrz6KY2tfb1IsR
fO/jGRwKVTrt8SzOGvCzPtCKoWz+UYWr3rIfSjKCKeSiLQIDAQABo4ICVTCCAlEw
DgYDVR0PAQH/BAQDAgWgMB0GA1UdJQQWMBQGCCsGAQUFBwMBBggrBgEFBQcDAjAM
BgNVHRMBAf8EAjAAMB0GA1UdDgQWBBR0XhqMluanEumQm+aDcBqvwk+5PzAfBgNV
HSMEGDAWgBTnq58PLDOgU9NeT3jIsoQOO9aSMzAzBggrBgEFBQcBAQQnMCUwIwYI
KwYBBQUHMAKGF2h0dHA6Ly9yMTMuaS5sZW5jci5vcmcvMEgGA1UdEQRBMD+CF2Fy
Y2hpdm8udHJhYmFqYWRvcmVzLmN1gg90cmFiYWphZG9yZXMuY3WCE3d3dy50cmFi
YWphZG9yZXMuY3UwEwYDVR0gBAwwCjAIBgZngQwBAgEwLgYDVR0fBCcwJTAjoCGg
H4YdaHR0cDovL3IxMy5jLmxlbmNyLm9yZy8yMy5jcmwwggEMBgorBgEEAdZ5AgQC
BIH9BIH6APgAdgCWl2S/VViXrfdDh2g3CEJ36fA61fak8zZuRqQ/D8qpxgAAAZt+
8aA8AAAEAwBHMEUCIFdPB9YY8V8m7E4cpNKGtLAzsSg9aqwJ4MqIP5eOLJD+AiEA
71afbp/Y4OOY47rxlyXKdbVZFjXCeO2Rh6yM3nPF93MAfgDjI43yjaKI4KrgrPD6
kMmF8La/9dKlJ7AB/BxEWMS26AAAAZt+8aIDAAgAAAUALg3ohQQDAEcwRQIhANOC
mA4i3rE1YVqiOl6umaUwS+ydDVLq5khysz+qxAToAiApxAXRH3qPRK7GzIB0rQ4H
P++WXTzRbSwBAHyMvq8wPzANBgkqhkiG9w0BAQsFAAOCAQEAb1Tr05vs0+J5Sla3
lSVpzAxkrHsgU+zhvy1nAh0lZaoT9NaMj/H+xA6QG32e3NDpcn3jdXK+OQpL+mzq
BvAi3hzIgA8A9zSAGnj2afO4vS+XjDsu7FNJC3DoMObpoPfBjDSbeBjV/1NlVQZx
r2uf6qugowPvCxXglzBgXPOj2Sv7pnoMnJXnQYYL0AGEZcJPkcfldr2psLLLYnSH
kR1+3KJw9p2GQHlNuPcAQK+A4vkmaXhxkVbT/Zdw/V6vkGW/W3XX6tGwVjqdEz+9
bxXZUJEOFWIfIxR9LchFpvm8Gf7NUv2jdufKfNj3kj9ec3xPlU5V5I9HuZmemMWC
wm1FWQ==
-----END CERTIFICATE-----
